target datalayout = "e-m:e-p270:32:32-p271:32:32-p272:64:64-i64:64-i128:128-f80:128-n8:16:32:64-S128"
target triple = "x86_64-unknown-linux-gnu"

module asm ".section \22.export_symbol\22,\22a\22 ; __export_symbol_dm_kobject_release: ; .asciz \22\22 ; .asciz \22\22 ; .balign 8 ; .quad dm_kobject_release ; .previous"

@__UNIQUE_ID___addressable_dm_kobject_release729 = internal global ptr @dm_kobject_release, section ".discard.addressable", align 8
@llvm.compiler.used = appending global [1 x ptr] [ptr @__UNIQUE_ID___addressable_dm_kobject_release729], section "llvm.metadata"

; Function Attrs: fn_ret_thunk_extern nounwind null_pointer_is_valid
define dso_local void @dm_kobject_release(ptr noundef %0) #0 align 16 {
  %2 = getelementptr inbounds i8, ptr %0, i64 64
  tail call void @complete(ptr noundef %2) #2
  ret void
}

; Function Attrs: null_pointer_is_valid
declare dso_local void @complete(ptr noundef) local_unnamed_addr #1


!llvm.module.flags = !{!0, !1, !2, !3, !4}

!0 = !{i32 1, !"wchar_size", i32 2}
!1 = !{i32 8, !"cf-protection-branch", i32 1}
!2 = !{i32 4, !"function_return_thunk_extern", i32 1}
!3 = !{i32 4, !"indirect_branch_cs_prefix", i32 1}
!4 = !{i32 4, !"SkipRaxSetup", i32 1}
